; Function Attrs: null_pointer_is_valid sspstrong uwtable
define internal i32 @dissect_h245_T_rtpPayloadType(ptr noundef %0, i32 noundef %1, ptr noundef %2, ptr noundef %3, i32 noundef %4) #1 {
  %6 = alloca i32, align 4
  call void @llvm.lifetime.start.p0(i64 4, ptr nonnull %6) #13
  %7 = call i32 @dissect_per_constrained_integer(ptr noundef %0, i32 noundef %1, ptr noundef %2, ptr noundef %3, i32 noundef %4, i32 noundef 0, i32 noundef 127, ptr noundef nonnull %6, i1 noundef zeroext false)
  %8 = load i32, ptr @rfc_number, align 4
  %9 = icmp eq i32 %8, 2198
  %10 = load ptr, ptr @upcoming_channel, align 8
  %11 = icmp ne ptr %10, null
  %or.cond = select i1 %9, i1 %11, i1 false
  br i1 %or.cond, label %12, label %15

12:                                               ; preds = %5
  %13 = load i32, ptr %6, align 4
  %14 = getelementptr inbounds nuw i8, ptr %10, i64 136
  store i32 %13, ptr %14, align 8
  br label %15

15:                                               ; preds = %12, %5
  call void @llvm.lifetime.end.p0(i64 4, ptr nonnull %6) #13
  ret i32 %7
}